target datalayout = "e-m:e-p270:32:32-p271:32:32-p272:64:64-i64:64-i128:128-f80:128-n8:16:32:64-S128"
target triple = "x86_64-pc-linux-gnu"

%struct.PJconsts = type <{ ptr, ptr, ptr, ptr, ptr, ptr, ptr, ptr, ptr, ptr, ptr, ptr, i32, [4 x i8], ptr, ptr, ptr, ptr, ptr, ptr, ptr, ptr, double, double, double, double, double, double, double, double, double, double, double, double, double, double, double, double, double, double, double, double, double, double, i32, i32, i32, i32, i32, i32, i32, i32, i32, i32, i32, [4 x i8], ptr, ptr, ptr, ptr, ptr, ptr, double, double, double, double, double, double, double, double, double, double, double, i32, [4 x i8], [7 x double], i32, [4 x i8], ptr, ptr, double, double, i32, [4 x i8], %"class.std::shared_ptr", i8, [7 x i8], double, i8, [7 x i8], %"class.std::__cxx11::basic_string", %"class.std::__cxx11::basic_string", %"class.std::__cxx11::basic_string", i8, [7 x i8], %"class.std::vector", i32, [4 x i8], %"class.std::vector.3", i32, i8, i8, i8, i8 }>
%"class.std::shared_ptr" = type { %"class.std::__shared_ptr" }
%"class.std::__shared_ptr" = type { ptr, %"class.std::__shared_count" }
%"class.std::__shared_count" = type { ptr }
%"class.std::__cxx11::basic_string" = type { %"struct.std::__cxx11::basic_string<char>::_Alloc_hider", i64, %union.anon }
%"struct.std::__cxx11::basic_string<char>::_Alloc_hider" = type { ptr }
%union.anon = type { i64, [8 x i8] }
%"class.std::vector" = type { %"struct.std::_Vector_base" }
%"struct.std::_Vector_base" = type { %"struct.std::_Vector_base<osgeo::proj::operation::GridDescription, std::allocator<osgeo::proj::operation::GridDescription>>::_Vector_impl" }
%"struct.std::_Vector_base<osgeo::proj::operation::GridDescription, std::allocator<osgeo::proj::operation::GridDescription>>::_Vector_impl" = type { %"struct.std::_Vector_base<osgeo::proj::operation::GridDescription, std::allocator<osgeo::proj::operation::GridDescription>>::_Vector_impl_data" }
%"struct.std::_Vector_base<osgeo::proj::operation::GridDescription, std::allocator<osgeo::proj::operation::GridDescription>>::_Vector_impl_data" = type { ptr, ptr, ptr }
%"class.std::vector.3" = type { %"struct.std::_Vector_base.4" }
%"struct.std::_Vector_base.4" = type { %"struct.std::_Vector_base<PJCoordOperation, std::allocator<PJCoordOperation>>::_Vector_impl" }
%"struct.std::_Vector_base<PJCoordOperation, std::allocator<PJCoordOperation>>::_Vector_impl" = type { %"struct.std::_Vector_base<PJCoordOperation, std::allocator<PJCoordOperation>>::_Vector_impl_data" }
%"struct.std::_Vector_base<PJCoordOperation, std::allocator<PJCoordOperation>>::_Vector_impl_data" = type { ptr, ptr, ptr }
%"class.std::allocator" = type { i8 }

@.str.67 = private unnamed_addr constant [1 x i8] zeroinitializer, align 1
@.str.69 = private unnamed_addr constant [37 x i8] c"Attempt to use coordinate operation \00", align 1
@.str.70 = private unnamed_addr constant [9 x i8] c" failed.\00", align 1
@.str.71 = private unnamed_addr constant [7 x i8] c" Grid \00", align 1
@.str.72 = private unnamed_addr constant [78 x i8] c" is not available. Consult https://proj.org/resource_files.html for guidance.\00", align 1
@.str.73 = private unnamed_addr constant [181 x i8] c" This might become an error in a future PROJ major release. Set the ONLY_BEST option to YES or NO. This warning will no longer be emitted (for the current transformation instance).\00", align 1

; Function Attrs: mustprogress uwtable
define internal void @_ZL20warnAboutMissingGridP8PJconsts(ptr noundef %0) #1 personality ptr @__gxx_personality_v0 {
  %2 = alloca ptr, align 8
  %3 = alloca %"class.std::__cxx11::basic_string", align 8
  %4 = alloca %"class.std::allocator", align 1
  %5 = alloca ptr, align 8
  %6 = alloca i32, align 4
  %7 = alloca i32, align 4
  %8 = alloca i32, align 4
  %9 = alloca ptr, align 8
  %10 = alloca i32, align 4
  store ptr %0, ptr %2, align 8
  call void @_ZNSaIcEC1Ev(ptr noundef nonnull align 1 dereferenceable(1) %4) #19
  invoke void @_ZNSt7__cxx1112basic_stringIcSt11char_traitsIcESaIcEEC1EPKcRKS3_(ptr noundef nonnull align 8 dereferenceable(32) %3, ptr noundef @.str.69, ptr noundef nonnull align 1 dereferenceable(1) %4)
          to label %11 unwind label %49

11:                                               ; preds = %1
  call void @_ZNSaIcED1Ev(ptr noundef nonnull align 1 dereferenceable(1) %4) #19
  %12 = load ptr, ptr %2, align 8
  %13 = invoke ptr @proj_get_name(ptr noundef %12)
          to label %14 unwind label %53

14:                                               ; preds = %11
  %15 = invoke noundef nonnull align 8 dereferenceable(32) ptr @_ZNSt7__cxx1112basic_stringIcSt11char_traitsIcESaIcEEpLEPKc(ptr noundef nonnull align 8 dereferenceable(32) %3, ptr noundef %13)
          to label %16 unwind label %53

16:                                               ; preds = %14
  %17 = invoke noundef nonnull align 8 dereferenceable(32) ptr @_ZNSt7__cxx1112basic_stringIcSt11char_traitsIcESaIcEEpLEPKc(ptr noundef nonnull align 8 dereferenceable(32) %3, ptr noundef @.str.70)
          to label %18 unwind label %53

18:                                               ; preds = %16
  %19 = load ptr, ptr %2, align 8
  %20 = getelementptr inbounds %struct.PJconsts, ptr %19, i32 0, i32 0
  %21 = load ptr, ptr %20, align 8
  %22 = load ptr, ptr %2, align 8
  %23 = invoke i32 @proj_coordoperation_get_grid_used_count(ptr noundef %21, ptr noundef %22)
          to label %24 unwind label %53

24:                                               ; preds = %18
  store i32 %23, ptr %7, align 4
  store i32 0, ptr %8, align 4
  br label %25

25:                                               ; preds = %58, %24
  %26 = load i32, ptr %8, align 4
  %27 = load i32, ptr %7, align 4
  %28 = icmp slt i32 %26, %27
  br i1 %28, label %29, label %61

29:                                               ; preds = %25
  store ptr @.str.67, ptr %9, align 8
  store i32 0, ptr %10, align 4
  %30 = load ptr, ptr %2, align 8
  %31 = getelementptr inbounds %struct.PJconsts, ptr %30, i32 0, i32 0
  %32 = load ptr, ptr %31, align 8
  %33 = load ptr, ptr %2, align 8
  %34 = load i32, ptr %8, align 4
  %35 = invoke i32 @proj_coordoperation_get_grid_used(ptr noundef %32, ptr noundef %33, i32 noundef %34, ptr noundef %9, ptr noundef null, ptr noundef null, ptr noundef null, ptr noundef null, ptr noundef null, ptr noundef %10)
          to label %36 unwind label %53

36:                                               ; preds = %29
  %37 = icmp ne i32 %35, 0
  br i1 %37, label %38, label %57

38:                                               ; preds = %36
  %39 = load i32, ptr %10, align 4
  %40 = icmp ne i32 %39, 0
  br i1 %40, label %57, label %41

41:                                               ; preds = %38
  %42 = invoke noundef nonnull align 8 dereferenceable(32) ptr @_ZNSt7__cxx1112basic_stringIcSt11char_traitsIcESaIcEEpLEPKc(ptr noundef nonnull align 8 dereferenceable(32) %3, ptr noundef @.str.71)
          to label %43 unwind label %53

43:                                               ; preds = %41
  %44 = load ptr, ptr %9, align 8
  %45 = invoke noundef nonnull align 8 dereferenceable(32) ptr @_ZNSt7__cxx1112basic_stringIcSt11char_traitsIcESaIcEEpLEPKc(ptr noundef nonnull align 8 dereferenceable(32) %3, ptr noundef %44)
          to label %46 unwind label %53

46:                                               ; preds = %43
  %47 = invoke noundef nonnull align 8 dereferenceable(32) ptr @_ZNSt7__cxx1112basic_stringIcSt11char_traitsIcESaIcEEpLEPKc(ptr noundef nonnull align 8 dereferenceable(32) %3, ptr noundef @.str.72)
          to label %48 unwind label %53

48:                                               ; preds = %46
  br label %57

49:                                               ; preds = %1
  %50 = landingpad { ptr, i32 }
          cleanup
  %51 = extractvalue { ptr, i32 } %50, 0
  store ptr %51, ptr %5, align 8
  %52 = extractvalue { ptr, i32 } %50, 1
  store i32 %52, ptr %6, align 4
  call void @_ZNSaIcED1Ev(ptr noundef nonnull align 1 dereferenceable(1) %4) #19
  br label %87

53:                                               ; preds = %76, %71, %46, %43, %41, %29, %18, %16, %14, %11
  %54 = landingpad { ptr, i32 }
          cleanup
  %55 = extractvalue { ptr, i32 } %54, 0
  store ptr %55, ptr %5, align 8
  %56 = extractvalue { ptr, i32 } %54, 1
  store i32 %56, ptr %6, align 4
  call void @_ZNSt7__cxx1112basic_stringIcSt11char_traitsIcESaIcEED1Ev(ptr noundef nonnull align 8 dereferenceable(32) %3) #19
  br label %87

57:                                               ; preds = %48, %38, %36
  br label %58

58:                                               ; preds = %57
  %59 = load i32, ptr %8, align 4
  %60 = add nsw i32 %59, 1
  store i32 %60, ptr %8, align 4
  br label %25, !llvm.loop !9

61:                                               ; preds = %25
  %62 = load ptr, ptr %2, align 8
  %63 = getelementptr inbounds %struct.PJconsts, ptr %62, i32 0, i32 100
  %64 = load i8, ptr %63, align 4
  %65 = trunc i8 %64 to i1
  br i1 %65, label %76, label %66

66:                                               ; preds = %61
  %67 = load ptr, ptr %2, align 8
  %68 = getelementptr inbounds %struct.PJconsts, ptr %67, i32 0, i32 101
  %69 = load i8, ptr %68, align 1
  %70 = trunc i8 %69 to i1
  br i1 %70, label %71, label %76

71:                                               ; preds = %66
  %72 = invoke noundef nonnull align 8 dereferenceable(32) ptr @_ZNSt7__cxx1112basic_stringIcSt11char_traitsIcESaIcEEpLEPKc(ptr noundef nonnull align 8 dereferenceable(32) %3, ptr noundef @.str.73)
          to label %73 unwind label %53

73:                                               ; preds = %71
  %74 = load ptr, ptr %2, align 8
  %75 = getelementptr inbounds %struct.PJconsts, ptr %74, i32 0, i32 101
  store i8 0, ptr %75, align 1
  br label %76

76:                                               ; preds = %73, %66, %61
  %77 = load ptr, ptr %2, align 8
  %78 = getelementptr inbounds %struct.PJconsts, ptr %77, i32 0, i32 0
  %79 = load ptr, ptr %78, align 8
  %80 = load ptr, ptr %2, align 8
  %81 = getelementptr inbounds %struct.PJconsts, ptr %80, i32 0, i32 100
  %82 = load i8, ptr %81, align 4
  %83 = trunc i8 %82 to i1
  %84 = select i1 %83, i32 1, i32 2
  %85 = call noundef ptr @_ZNKSt7__cxx1112basic_stringIcSt11char_traitsIcESaIcEE5c_strEv(ptr noundef nonnull align 8 dereferenceable(32) %3) #19
  invoke void (ptr, i32, ptr, ...) @_Z6pj_logP6pj_ctxiPKcz(ptr noundef %79, i32 noundef %84, ptr noundef %85)
          to label %86 unwind label %53

86:                                               ; preds = %76
  call void @_ZNSt7__cxx1112basic_stringIcSt11char_traitsIcESaIcEED1Ev(ptr noundef nonnull align 8 dereferenceable(32) %3) #19
  ret void

87:                                               ; preds = %53, %49
  %88 = load ptr, ptr %5, align 8
  %89 = load i32, ptr %6, align 4
  %90 = insertvalue { ptr, i32 } poison, ptr %88, 0
  %91 = insertvalue { ptr, i32 } %90, i32 %89, 1
  resume { ptr, i32 } %91
}