; Function Attrs: mustprogress uwtable
define internal fastcc void @_ZL20warnAboutMissingGridP8PJconsts(ptr noundef %0) unnamed_addr #1 personality ptr @__gxx_personality_v0 {
  %2 = alloca %"class.std::__cxx11::basic_string", align 8
  %3 = alloca %"class.std::allocator", align 1
  %4 = alloca ptr, align 8
  %5 = alloca i32, align 4
  call void @_ZNSaIcEC1Ev(ptr noundef nonnull align 1 dereferenceable(1) %3) #33
  invoke void @_ZNSt7__cxx1112basic_stringIcSt11char_traitsIcESaIcEEC1EPKcRKS3_(ptr noundef nonnull align 8 dereferenceable(32) %2, ptr noundef nonnull @.str.69, ptr noundef nonnull align 1 dereferenceable(1) %3)
          to label %6 unwind label %29

6:                                                ; preds = %1
  call void @_ZNSaIcED1Ev(ptr noundef nonnull align 1 dereferenceable(1) %3) #33
  %7 = invoke ptr @proj_get_name(ptr noundef %0)
          to label %8 unwind label %.loopexit.split-lp

8:                                                ; preds = %6
  %9 = invoke noundef nonnull align 8 dereferenceable(32) ptr @_ZNSt7__cxx1112basic_stringIcSt11char_traitsIcESaIcEEpLEPKc(ptr noundef nonnull align 8 dereferenceable(32) %2, ptr noundef %7)
          to label %10 unwind label %.loopexit.split-lp

10:                                               ; preds = %8
  %11 = invoke noundef nonnull align 8 dereferenceable(32) ptr @_ZNSt7__cxx1112basic_stringIcSt11char_traitsIcESaIcEEpLEPKc(ptr noundef nonnull align 8 dereferenceable(32) %2, ptr noundef nonnull @.str.70)
          to label %12 unwind label %.loopexit.split-lp

12:                                               ; preds = %10
  %13 = load ptr, ptr %0, align 8
  %14 = invoke i32 @proj_coordoperation_get_grid_used_count(ptr noundef %13, ptr noundef nonnull %0)
          to label %.preheader unwind label %.loopexit.split-lp

.preheader:                                       ; preds = %12
  %15 = icmp sgt i32 %14, 0
  br i1 %15, label %.lr.ph, label %._crit_edge

.lr.ph:                                           ; preds = %.preheader, %32
  %.019 = phi i32 [ %33, %32 ], [ 0, %.preheader ]
  store ptr @.str.67, ptr %4, align 8
  store i32 0, ptr %5, align 4
  %16 = load ptr, ptr %0, align 8
  %17 = invoke i32 @proj_coordoperation_get_grid_used(ptr noundef %16, ptr noundef nonnull %0, i32 noundef %.019, ptr noundef nonnull %4, ptr noundef null, ptr noundef null, ptr noundef null, ptr noundef null, ptr noundef null, ptr noundef nonnull %5)
          to label %18 unwind label %.loopexit

18:                                               ; preds = %.lr.ph
  %19 = icmp eq i32 %17, 0
  %20 = load i32, ptr %5, align 4
  %21 = icmp ne i32 %20, 0
  %or.cond = select i1 %19, i1 true, i1 %21
  br i1 %or.cond, label %32, label %22

22:                                               ; preds = %18
  %23 = invoke noundef nonnull align 8 dereferenceable(32) ptr @_ZNSt7__cxx1112basic_stringIcSt11char_traitsIcESaIcEEpLEPKc(ptr noundef nonnull align 8 dereferenceable(32) %2, ptr noundef nonnull @.str.71)
          to label %24 unwind label %.loopexit

24:                                               ; preds = %22
  %25 = load ptr, ptr %4, align 8
  %26 = invoke noundef nonnull align 8 dereferenceable(32) ptr @_ZNSt7__cxx1112basic_stringIcSt11char_traitsIcESaIcEEpLEPKc(ptr noundef nonnull align 8 dereferenceable(32) %2, ptr noundef %25)
          to label %27 unwind label %.loopexit

27:                                               ; preds = %24
  %28 = invoke noundef nonnull align 8 dereferenceable(32) ptr @_ZNSt7__cxx1112basic_stringIcSt11char_traitsIcESaIcEEpLEPKc(ptr noundef nonnull align 8 dereferenceable(32) %2, ptr noundef nonnull @.str.72)
          to label %32 unwind label %.loopexit

29:                                               ; preds = %1
  %30 = landingpad { ptr, i32 }
          cleanup
  call void @_ZNSaIcED1Ev(ptr noundef nonnull align 1 dereferenceable(1) %3) #33
  br label %48

.loopexit:                                        ; preds = %.lr.ph, %22, %24, %27
  %lpad.loopexit = landingpad { ptr, i32 }
          cleanup
  br label %31

.loopexit.split-lp:                               ; preds = %6, %8, %10, %12, %41, %.sink.split
  %lpad.loopexit.split-lp = landingpad { ptr, i32 }
          cleanup
  br label %31

31:                                               ; preds = %.loopexit.split-lp, %.loopexit
  %lpad.phi = phi { ptr, i32 } [ %lpad.loopexit, %.loopexit ], [ %lpad.loopexit.split-lp, %.loopexit.split-lp ]
  call void @_ZNSt7__cxx1112basic_stringIcSt11char_traitsIcESaIcEED1Ev(ptr noundef nonnull align 8 dereferenceable(32) %2) #33
  br label %48

32:                                               ; preds = %18, %27
  %33 = add nuw nsw i32 %.019, 1
  %exitcond.not = icmp eq i32 %33, %14
  br i1 %exitcond.not, label %._crit_edge, label %.lr.ph, !llvm.loop !9

._crit_edge:                                      ; preds = %32, %.preheader
  %34 = getelementptr inbounds i8, ptr %0, i64 844
  %35 = load i8, ptr %34, align 4
  %36 = trunc i8 %35 to i1
  br i1 %36, label %.sink.split, label %37

37:                                               ; preds = %._crit_edge
  %38 = getelementptr inbounds i8, ptr %0, i64 845
  %39 = load i8, ptr %38, align 1
  %40 = trunc i8 %39 to i1
  br i1 %40, label %41, label %.sink.split

41:                                               ; preds = %37
  %42 = invoke noundef nonnull align 8 dereferenceable(32) ptr @_ZNSt7__cxx1112basic_stringIcSt11char_traitsIcESaIcEEpLEPKc(ptr noundef nonnull align 8 dereferenceable(32) %2, ptr noundef nonnull @.str.73)
          to label %43 unwind label %.loopexit.split-lp

43:                                               ; preds = %41
  store i8 0, ptr %38, align 1
  %.pre = load i8, ptr %34, align 4
  %.pre.fr = freeze i8 %.pre
  %.pre20 = trunc i8 %.pre.fr to i1
  %spec.select = select i1 %.pre20, i32 1, i32 2
  br label %.sink.split

.sink.split:                                      ; preds = %._crit_edge, %37, %43
  %44 = phi i32 [ %spec.select, %43 ], [ 1, %._crit_edge ], [ 2, %37 ]
  %45 = load ptr, ptr %0, align 8
  %46 = call noundef ptr @_ZNKSt7__cxx1112basic_stringIcSt11char_traitsIcESaIcEE5c_strEv(ptr noundef nonnull align 8 dereferenceable(32) %2) #33
  invoke void (ptr, i32, ptr, ...) @_Z6pj_logP6pj_ctxiPKcz(ptr noundef %45, i32 noundef %44, ptr noundef %46)
          to label %47 unwind label %.loopexit.split-lp

47:                                               ; preds = %.sink.split
  call void @_ZNSt7__cxx1112basic_stringIcSt11char_traitsIcESaIcEED1Ev(ptr noundef nonnull align 8 dereferenceable(32) %2) #33
  ret void

48:                                               ; preds = %31, %29
  %.pn = phi { ptr, i32 } [ %lpad.phi, %31 ], [ %30, %29 ]
  resume { ptr, i32 } %.pn
}